; Function Attrs: mustprogress uwtable
define noundef nonnull align 8 dereferenceable(8) ptr @_ZN7mitsubalsERNSt3__113basic_ostreamIcNS0_11char_traitsIcEEEENS_6Bitmap14AlphaTransformE(ptr noundef nonnull returned align 8 dereferenceable(8) %0, i32 noundef %1) local_unnamed_addr #0 personality ptr @__gxx_personality_v0 {
  %3 = alloca %"class.std::__1::basic_string", align 8
  switch i32 %1, label %10 [
    i32 0, label %4
    i32 1, label %6
    i32 2, label %8
  ]

4:                                                ; preds = %2
  %5 = tail call noundef nonnull align 8 dereferenceable(8) ptr @_ZNSt3__124__put_character_sequenceB8ne190000IcNS_11char_traitsIcEEEERNS_13basic_ostreamIT_T0_EES7_PKS4_m(ptr noundef nonnull align 8 dereferenceable(8) %0, ptr noundef nonnull @.str.156, i64 noundef 4)
  br label %15

6:                                                ; preds = %2
  %7 = tail call noundef nonnull align 8 dereferenceable(8) ptr @_ZNSt3__124__put_character_sequenceB8ne190000IcNS_11char_traitsIcEEEERNS_13basic_ostreamIT_T0_EES7_PKS4_m(ptr noundef nonnull align 8 dereferenceable(8) %0, ptr noundef nonnull @.str.157, i64 noundef 11)
  br label %15

8:                                                ; preds = %2
  %9 = tail call noundef nonnull align 8 dereferenceable(8) ptr @_ZNSt3__124__put_character_sequenceB8ne190000IcNS_11char_traitsIcEEEERNS_13basic_ostreamIT_T0_EES7_PKS4_m(ptr noundef nonnull align 8 dereferenceable(8) %0, ptr noundef nonnull @.str.158, i64 noundef 13)
  br label %15

10:                                               ; preds = %2
  %11 = load ptr, ptr @_ZN7mitsuba7m_classE, align 8
  call void @_ZN10tinyformat6formatIJEEENSt3__112basic_stringIcNS1_11char_traitsIcEENS1_9allocatorIcEEEEPKcDpRKT_(ptr dead_on_unwind nonnull writable sret(%"class.std::__1::basic_string") align 8 %3, ptr noundef nonnull @.str.159)
  invoke void @_ZN7mitsuba6detail5ThrowENS_8LogLevelEPKNS_5ClassEPKciRKNSt3__112basic_stringIcNS7_11char_traitsIcEENS7_9allocatorIcEEEE(i32 noundef 400, ptr noundef %11, ptr noundef nonnull @.str.10, i32 noundef 2536, ptr noundef nonnull align 8 dereferenceable(24) %3) #37
          to label %12 unwind label %13

12:                                               ; preds = %10
  unreachable

13:                                               ; preds = %10
  %14 = landingpad { ptr, i32 }
          cleanup
  call void @_ZNSt3__112basic_stringIcNS_11char_traitsIcEENS_9allocatorIcEEED1Ev(ptr noundef nonnull align 8 dereferenceable(24) %3) #36
  resume { ptr, i32 } %14

15:                                               ; preds = %8, %6, %4
  ret ptr %0
}